target datalayout = "e-m:e-p270:32:32-p271:32:32-p272:64:64-i64:64-i128:128-f80:128-n8:16:32:64-S128"
target triple = "x86_64-pc-linux-gnu"

%struct.AVCodecParser = type { [7 x i32], i32, ptr, ptr, ptr, ptr }
%struct.AVCodecContext = type { ptr, i32, i32, ptr, i32, i32, ptr, ptr, ptr, i64, i32, i32, ptr, i32, %struct.AVRational, %struct.AVRational, %struct.AVRational, i32, i32, i32, i32, i32, %struct.AVRational, i32, i32, i32, i32, i32, i32, i32, i32, i32, i32, i32, ptr, ptr, i32, float, float, float, float, float, float, float, float, float, i32, i32, i32, i32, i32, i32, i32, i32, i32, i32, i32, i32, ptr, ptr, ptr, i32, i32, i32, i32, i32, i32, i32, i32, i32, i32, %struct.AVChannelLayout, i32, i32, i32, i32, i32, i32, i32, i32, ptr, i32, i32, i32, float, float, i32, i32, i32, i32, i32, ptr, i64, i64, float, float, i32, i32, ptr, ptr, i32, i32, i32, i32, i32, ptr, ptr, ptr, ptr, i32, i32, [8 x i64], i32, i32, i32, i32, i32, i32, i32, ptr, ptr, i32, i32, i32, i32, i32, i32, i32, i32, i32, i32, ptr, ptr, i32, i32, ptr, ptr, ptr, ptr, i32, i32, i64, i32, i32, i64, ptr, i64, ptr, i32, ptr, i32 }
%struct.AVRational = type { i32, i32 }
%struct.AVChannelLayout = type { i32, i32, %union.anon, ptr }
%union.anon = type { i64 }
%struct.AVCodecParserContext = type { ptr, ptr, i64, i64, i64, i32, i32, i64, i64, i64, i64, i32, i32, [4 x i64], [4 x i64], [4 x i64], i32, i64, [4 x i64], i32, i32, i32, i32, [4 x i64], i64, i64, i32, i32, i32, i32, i32, i32, i32, i32, i32 }

@ff_vp3_parser = constant %struct.AVCodecParser { [7 x i32] [i32 30, i32 29, i32 91, i32 92, i32 106, i32 0, i32 0], i32 0, ptr null, ptr @parse, ptr null, ptr null }, align 8

; Function Attrs: nounwind uwtable
define internal i32 @parse(ptr noundef %0, ptr noundef %1, ptr noundef %2, ptr noundef %3, ptr noundef %4, i32 noundef %5) #0 {
  %7 = alloca ptr, align 8
  %8 = alloca ptr, align 8
  %9 = alloca ptr, align 8
  %10 = alloca ptr, align 8
  %11 = alloca ptr, align 8
  %12 = alloca i32, align 4
  store ptr %0, ptr %7, align 8, !tbaa !4
  store ptr %1, ptr %8, align 8, !tbaa !9
  store ptr %2, ptr %9, align 8, !tbaa !11
  store ptr %3, ptr %10, align 8, !tbaa !14
  store ptr %4, ptr %11, align 8, !tbaa !16
  store i32 %5, ptr %12, align 4, !tbaa !18
  %13 = load ptr, ptr %8, align 8, !tbaa !9
  %14 = getelementptr inbounds nuw %struct.AVCodecContext, ptr %13, i32 0, i32 4
  %15 = load i32, ptr %14, align 8, !tbaa !20
  %16 = icmp eq i32 %15, 30
  br i1 %16, label %17, label %27

17:                                               ; preds = %6
  %18 = load ptr, ptr %11, align 8, !tbaa !16
  %19 = getelementptr inbounds i8, ptr %18, i64 0
  %20 = load i8, ptr %19, align 1, !tbaa !36
  %21 = zext i8 %20 to i32
  %22 = and i32 %21, 64
  %23 = icmp ne i32 %22, 0
  %24 = select i1 %23, i32 2, i32 1
  %25 = load ptr, ptr %7, align 8, !tbaa !4
  %26 = getelementptr inbounds nuw %struct.AVCodecParserContext, ptr %25, i32 0, i32 5
  store i32 %24, ptr %26, align 8, !tbaa !37
  br label %37

27:                                               ; preds = %6
  %28 = load ptr, ptr %11, align 8, !tbaa !16
  %29 = getelementptr inbounds i8, ptr %28, i64 0
  %30 = load i8, ptr %29, align 1, !tbaa !36
  %31 = zext i8 %30 to i32
  %32 = and i32 %31, 128
  %33 = icmp ne i32 %32, 0
  %34 = select i1 %33, i32 2, i32 1
  %35 = load ptr, ptr %7, align 8, !tbaa !4
  %36 = getelementptr inbounds nuw %struct.AVCodecParserContext, ptr %35, i32 0, i32 5
  store i32 %34, ptr %36, align 8, !tbaa !37
  br label %37

37:                                               ; preds = %27, %17
  %38 = load ptr, ptr %11, align 8, !tbaa !16
  %39 = load ptr, ptr %9, align 8, !tbaa !11
  store ptr %38, ptr %39, align 8, !tbaa !16
  %40 = load i32, ptr %12, align 4, !tbaa !18
  %41 = load ptr, ptr %10, align 8, !tbaa !14
  store i32 %40, ptr %41, align 4, !tbaa !18
  %42 = load i32, ptr %12, align 4, !tbaa !18
  ret i32 %42
}


!llvm.module.flags = !{!0, !1, !2, !3}

!0 = !{i32 1, !"wchar_size", i32 4}
!1 = !{i32 8, !"PIC Level", i32 2}
!2 = !{i32 7, !"uwtable", i32 2}
!3 = !{i32 1, !"override-stack-alignment", i32 16}
!4 = !{!5, !5, i64 0}
!5 = !{!"p1 _ZTS20AVCodecParserContext", !6, i64 0}
!6 = !{!"any pointer", !7, i64 0}
!7 = !{!"omnipotent char", !8, i64 0}
!8 = !{!"Simple C/C++ TBAA"}
!9 = !{!10, !10, i64 0}
!10 = !{!"p1 _ZTS14AVCodecContext", !6, i64 0}
!11 = !{!12, !12, i64 0}
!12 = !{!"p2 omnipotent char", !13, i64 0}
!13 = !{!"any p2 pointer", !6, i64 0}
!14 = !{!15, !15, i64 0}
!15 = !{!"p1 int", !6, i64 0}
!16 = !{!17, !17, i64 0}
!17 = !{!"p1 omnipotent char", !6, i64 0}
!18 = !{!19, !19, i64 0}
!19 = !{!"int", !7, i64 0}
!20 = !{!21, !19, i64 24}
!21 = !{!"AVCodecContext", !22, i64 0, !19, i64 8, !19, i64 12, !23, i64 16, !19, i64 24, !19, i64 28, !6, i64 32, !24, i64 40, !6, i64 48, !25, i64 56, !19, i64 64, !19, i64 68, !17, i64 72, !19, i64 80, !26, i64 84, !26, i64 92, !26, i64 100, !19, i64 108, !19, i64 112, !19, i64 116, !19, i64 120, !19, i64 124, !26, i64 128, !19, i64 136, !19, i64 140, !19, i64 144, !19, i64 148, !19, i64 152, !19, i64 156, !19, i64 160, !19, i64 164, !19, i64 168, !19, i64 172, !19, i64 176, !6, i64 184, !6, i64 192, !19, i64 200, !27, i64 204, !27, i64 208, !27, i64 212, !27, i64 216, !27, i64 220, !27, i64 224, !27, i64 228, !27, i64 232, !27, i64 236, !19, i64 240, !19, i64 244, !19, i64 248, !19, i64 252, !19, i64 256, !19, i64 260, !19, i64 264, !19, i64 268, !19, i64 272, !19, i64 276, !19, i64 280, !19, i64 284, !28, i64 288, !28, i64 296, !28, i64 304, !19, i64 312, !19, i64 316, !19, i64 320, !19, i64 324, !19, i64 328, !19, i64 332, !19, i64 336, !19, i64 340, !19, i64 344, !19, i64 348, !29, i64 352, !19, i64 376, !19, i64 380, !19, i64 384, !19, i64 388, !19, i64 392, !19, i64 396, !19, i64 400, !19, i64 404, !6, i64 408, !19, i64 416, !19, i64 420, !19, i64 424, !27, i64 428, !27, i64 432, !19, i64 436, !19, i64 440, !19, i64 444, !19, i64 448, !19, i64 452, !30, i64 456, !25, i64 464, !25, i64 472, !27, i64 480, !27, i64 484, !19, i64 488, !19, i64 492, !17, i64 496, !17, i64 504, !19, i64 512, !19, i64 516, !19, i64 520, !19, i64 524, !19, i64 528, !31, i64 536, !6, i64 544, !32, i64 552, !32, i64 560, !19, i64 568, !19, i64 572, !7, i64 576, !19, i64 640, !19, i64 644, !19, i64 648, !19, i64 652, !19, i64 656, !19, i64 660, !19, i64 664, !6, i64 672, !6, i64 680, !19, i64 688, !19, i64 692, !19, i64 696, !19, i64 700, !19, i64 704, !19, i64 708, !19, i64 712, !19, i64 716, !19, i64 720, !19, i64 724, !33, i64 728, !17, i64 736, !19, i64 744, !19, i64 748, !17, i64 752, !17, i64 760, !17, i64 768, !34, i64 776, !19, i64 784, !19, i64 788, !25, i64 792, !19, i64 800, !19, i64 804, !25, i64 808, !6, i64 816, !25, i64 824, !15, i64 832, !19, i64 840, !35, i64 848, !19, i64 856}
!22 = !{!"p1 _ZTS7AVClass", !6, i64 0}
!23 = !{!"p1 _ZTS7AVCodec", !6, i64 0}
!24 = !{!"p1 _ZTS15AVCodecInternal", !6, i64 0}
!25 = !{!"long", !7, i64 0}
!26 = !{!"AVRational", !19, i64 0, !19, i64 4}
!27 = !{!"float", !7, i64 0}
!28 = !{!"p1 short", !6, i64 0}
!29 = !{!"AVChannelLayout", !19, i64 0, !19, i64 4, !7, i64 8, !6, i64 16}
!30 = !{!"p1 _ZTS10RcOverride", !6, i64 0}
!31 = !{!"p1 _ZTS9AVHWAccel", !6, i64 0}
!32 = !{!"p1 _ZTS11AVBufferRef", !6, i64 0}
!33 = !{!"p1 _ZTS17AVCodecDescriptor", !6, i64 0}
!34 = !{!"p1 _ZTS16AVPacketSideData", !6, i64 0}
!35 = !{!"p2 _ZTS15AVFrameSideData", !13, i64 0}
!36 = !{!7, !7, i64 0}
!37 = !{!38, !19, i64 40}
!38 = !{!"AVCodecParserContext", !6, i64 0, !39, i64 8, !25, i64 16, !25, i64 24, !25, i64 32, !19, i64 40, !19, i64 44, !25, i64 48, !25, i64 56, !25, i64 64, !25, i64 72, !19, i64 80, !19, i64 84, !7, i64 88, !7, i64 120, !7, i64 152, !19, i64 184, !25, i64 192, !7, i64 200, !19, i64 232, !19, i64 236, !19, i64 240, !19, i64 244, !7, i64 248, !25, i64 280, !25, i64 288, !19, i64 296, !19, i64 300, !19, i64 304, !19, i64 308, !19, i64 312, !19, i64 316, !19, i64 320, !19, i64 324, !19, i64 328}
!39 = !{!"p1 _ZTS13AVCodecParser", !6, i64 0}
